; ModuleID = '46/1810.c'
source_filename = "46/1810.c"
target datalayout = "e-m:e-p270:32:32-p271:32:32-p272:64:64-i64:64-f80:128-n8:16:32:64-S128"
target triple = "x86_64-pc-linux-gnu"

@.str = private unnamed_addr constant [5 x i8] c"%d%d\00", align 1
@.str.1 = private unnamed_addr constant [3 x i8] c"%d\00", align 1
@.str.2 = private unnamed_addr constant [4 x i8] c"%d\0A\00", align 1

; Function Attrs: noinline nounwind uwtable
define dso_local i32 @main() #0 {
  %1 = alloca i32, align 4
  %2 = alloca [100 x [100 x i32]], align 16
  %3 = alloca i32, align 4
  %4 = alloca i32, align 4
  %5 = alloca i32, align 4
  %6 = alloca i32, align 4
  %7 = alloca i32, align 4
  %8 = alloca i32, align 4
  store i32 0, i32* %1, align 4
  store i32 0, i32* %8, align 4
  %9 = call i32 (i8*, ...) @__isoc99_scanf(i8* getelementptr inbounds ([5 x i8], [5 x i8]* @.str, i64 0, i64 0), i32* %3, i32* %4)
  store i32 0, i32* %5, align 4
  br label %10

10:                                               ; preds = %31, %0
  %11 = load i32, i32* %5, align 4
  %12 = load i32, i32* %3, align 4
  %13 = icmp slt i32 %11, %12
  br i1 %13, label %14, label %34

14:                                               ; preds = %10
  store i32 0, i32* %6, align 4
  br label %15

15:                                               ; preds = %27, %14
  %16 = load i32, i32* %6, align 4
  %17 = load i32, i32* %4, align 4
  %18 = icmp slt i32 %16, %17
  br i1 %18, label %19, label %30

19:                                               ; preds = %15
  %20 = load i32, i32* %5, align 4
  %21 = sext i32 %20 to i64
  %22 = getelementptr inbounds [100 x [100 x i32]], [100 x [100 x i32]]* %2, i64 0, i64 %21
  %23 = load i32, i32* %6, align 4
  %24 = sext i32 %23 to i64
  %25 = getelementptr inbounds [100 x i32], [100 x i32]* %22, i64 0, i64 %24
  %26 = call i32 (i8*, ...) @__isoc99_scanf(i8* getelementptr inbounds ([3 x i8], [3 x i8]* @.str.1, i64 0, i64 0), i32* %25)
  br label %27

27:                                               ; preds = %19
  %28 = load i32, i32* %6, align 4
  %29 = add nsw i32 %28, 1
  store i32 %29, i32* %6, align 4
  br label %15

30:                                               ; preds = %15
  br label %31

31:                                               ; preds = %30
  %32 = load i32, i32* %5, align 4
  %33 = add nsw i32 %32, 1
  store i32 %33, i32* %5, align 4
  br label %10

34:                                               ; preds = %10
  store i32 0, i32* %7, align 4
  br label %35

35:                                               ; preds = %172, %34
  %36 = load i32, i32* %7, align 4
  %37 = icmp sle i32 %36, 1000000
  br i1 %37, label %38, label %175

38:                                               ; preds = %35
  %39 = load i32, i32* %8, align 4
  %40 = load i32, i32* %4, align 4
  %41 = load i32, i32* %3, align 4
  %42 = mul nsw i32 %40, %41
  %43 = icmp eq i32 %39, %42
  br i1 %43, label %44, label %45

44:                                               ; preds = %38
  br label %175

45:                                               ; preds = %38
  %46 = load i32, i32* %7, align 4
  store i32 %46, i32* %5, align 4
  br label %47

47:                                               ; preds = %71, %45
  %48 = load i32, i32* %5, align 4
  %49 = load i32, i32* %4, align 4
  %50 = load i32, i32* %7, align 4
  %51 = sub nsw i32 %49, %50
  %52 = icmp slt i32 %48, %51
  br i1 %52, label %53, label %74

53:                                               ; preds = %47
  %54 = load i32, i32* %8, align 4
  %55 = load i32, i32* %4, align 4
  %56 = load i32, i32* %3, align 4
  %57 = mul nsw i32 %55, %56
  %58 = icmp eq i32 %54, %57
  br i1 %58, label %59, label %60

59:                                               ; preds = %53
  br label %74

60:                                               ; preds = %53
  %61 = load i32, i32* %7, align 4
  %62 = sext i32 %61 to i64
  %63 = getelementptr inbounds [100 x [100 x i32]], [100 x [100 x i32]]* %2, i64 0, i64 %62
  %64 = load i32, i32* %5, align 4
  %65 = sext i32 %64 to i64
  %66 = getelementptr inbounds [100 x i32], [100 x i32]* %63, i64 0, i64 %65
  %67 = load i32, i32* %66, align 4
  %68 = call i32 (i8*, ...) @printf(i8* getelementptr inbounds ([4 x i8], [4 x i8]* @.str.2, i64 0, i64 0), i32 %67)
  %69 = load i32, i32* %8, align 4
  %70 = add nsw i32 %69, 1
  store i32 %70, i32* %8, align 4
  br label %71

71:                                               ; preds = %60
  %72 = load i32, i32* %5, align 4
  %73 = add nsw i32 %72, 1
  store i32 %73, i32* %5, align 4
  br label %47

74:                                               ; preds = %59, %47
  %75 = load i32, i32* %7, align 4
  %76 = add nsw i32 1, %75
  store i32 %76, i32* %5, align 4
  br label %77

77:                                               ; preds = %104, %74
  %78 = load i32, i32* %5, align 4
  %79 = load i32, i32* %3, align 4
  %80 = load i32, i32* %7, align 4
  %81 = sub nsw i32 %79, %80
  %82 = icmp slt i32 %78, %81
  br i1 %82, label %83, label %107

83:                                               ; preds = %77
  %84 = load i32, i32* %8, align 4
  %85 = load i32, i32* %4, align 4
  %86 = load i32, i32* %3, align 4
  %87 = mul nsw i32 %85, %86
  %88 = icmp eq i32 %84, %87
  br i1 %88, label %89, label %90

89:                                               ; preds = %83
  br label %107

90:                                               ; preds = %83
  %91 = load i32, i32* %5, align 4
  %92 = sext i32 %91 to i64
  %93 = getelementptr inbounds [100 x [100 x i32]], [100 x [100 x i32]]* %2, i64 0, i64 %92
  %94 = load i32, i32* %4, align 4
  %95 = sub nsw i32 %94, 1
  %96 = load i32, i32* %7, align 4
  %97 = sub nsw i32 %95, %96
  %98 = sext i32 %97 to i64
  %99 = getelementptr inbounds [100 x i32], [100 x i32]* %93, i64 0, i64 %98
  %100 = load i32, i32* %99, align 4
  %101 = call i32 (i8*, ...) @printf(i8* getelementptr inbounds ([4 x i8], [4 x i8]* @.str.2, i64 0, i64 0), i32 %100)
  %102 = load i32, i32* %8, align 4
  %103 = add nsw i32 %102, 1
  store i32 %103, i32* %8, align 4
  br label %104

104:                                              ; preds = %90
  %105 = load i32, i32* %5, align 4
  %106 = add nsw i32 %105, 1
  store i32 %106, i32* %5, align 4
  br label %77

107:                                              ; preds = %89, %77
  %108 = load i32, i32* %4, align 4
  %109 = sub nsw i32 %108, 2
  %110 = load i32, i32* %7, align 4
  %111 = sub nsw i32 %109, %110
  store i32 %111, i32* %5, align 4
  br label %112

112:                                              ; preds = %137, %107
  %113 = load i32, i32* %5, align 4
  %114 = load i32, i32* %7, align 4
  %115 = icmp sge i32 %113, %114
  br i1 %115, label %116, label %140

116:                                              ; preds = %112
  %117 = load i32, i32* %8, align 4
  %118 = load i32, i32* %4, align 4
  %119 = load i32, i32* %3, align 4
  %120 = mul nsw i32 %118, %119
  %121 = icmp eq i32 %117, %120
  br i1 %121, label %122, label %123

122:                                              ; preds = %116
  br label %140

123:                                              ; preds = %116
  %124 = load i32, i32* %3, align 4
  %125 = sub nsw i32 %124, 1
  %126 = load i32, i32* %7, align 4
  %127 = sub nsw i32 %125, %126
  %128 = sext i32 %127 to i64
  %129 = getelementptr inbounds [100 x [100 x i32]], [100 x [100 x i32]]* %2, i64 0, i64 %128
  %130 = load i32, i32* %5, align 4
  %131 = sext i32 %130 to i64
  %132 = getelementptr inbounds [100 x i32], [100 x i32]* %129, i64 0, i64 %131
  %133 = load i32, i32* %132, align 4
  %134 = call i32 (i8*, ...) @printf(i8* getelementptr inbounds ([4 x i8], [4 x i8]* @.str.2, i64 0, i64 0), i32 %133)
  %135 = load i32, i32* %8, align 4
  %136 = add nsw i32 %135, 1
  store i32 %136, i32* %8, align 4
  br label %137

137:                                              ; preds = %123
  %138 = load i32, i32* %5, align 4
  %139 = add nsw i32 %138, -1
  store i32 %139, i32* %5, align 4
  br label %112

140:                                              ; preds = %122, %112
  %141 = load i32, i32* %3, align 4
  %142 = sub nsw i32 %141, 2
  %143 = load i32, i32* %7, align 4
  %144 = sub nsw i32 %142, %143
  store i32 %144, i32* %5, align 4
  br label %145

145:                                              ; preds = %168, %140
  %146 = load i32, i32* %5, align 4
  %147 = load i32, i32* %7, align 4
  %148 = add nsw i32 1, %147
  %149 = icmp sge i32 %146, %148
  br i1 %149, label %150, label %171

150:                                              ; preds = %145
  %151 = load i32, i32* %8, align 4
  %152 = load i32, i32* %4, align 4
  %153 = load i32, i32* %3, align 4
  %154 = mul nsw i32 %152, %153
  %155 = icmp eq i32 %151, %154
  br i1 %155, label %156, label %157

156:                                              ; preds = %150
  br label %171

157:                                              ; preds = %150
  %158 = load i32, i32* %5, align 4
  %159 = sext i32 %158 to i64
  %160 = getelementptr inbounds [100 x [100 x i32]], [100 x [100 x i32]]* %2, i64 0, i64 %159
  %161 = load i32, i32* %7, align 4
  %162 = sext i32 %161 to i64
  %163 = getelementptr inbounds [100 x i32], [100 x i32]* %160, i64 0, i64 %162
  %164 = load i32, i32* %163, align 4
  %165 = call i32 (i8*, ...) @printf(i8* getelementptr inbounds ([4 x i8], [4 x i8]* @.str.2, i64 0, i64 0), i32 %164)
  %166 = load i32, i32* %8, align 4
  %167 = add nsw i32 %166, 1
  store i32 %167, i32* %8, align 4
  br label %168

168:                                              ; preds = %157
  %169 = load i32, i32* %5, align 4
  %170 = add nsw i32 %169, -1
  store i32 %170, i32* %5, align 4
  br label %145

171:                                              ; preds = %156, %145
  br label %172

172:                                              ; preds = %171
  %173 = load i32, i32* %7, align 4
  %174 = add nsw i32 %173, 1
  store i32 %174, i32* %7, align 4
  br label %35

175:                                              ; preds = %44, %35
  ret i32 0
}

declare dso_local i32 @__isoc99_scanf(i8*, ...) #1

declare dso_local i32 @printf(i8*, ...) #1


!llvm.module.flags = !{!0}
!llvm.ident = !{!1}

!0 = !{i32 1, !"wchar_size", i32 4}
!1 = !{!"clang version 10.0.0-4ubuntu1 "}
